;
; Definition file of 1394camera.dll
; Automatic generated by gendef
; written by Kai Tietz 2008
;
LIBRARY "1394camera.dll"
EXPORTS
??0C1394Camera@@QEAA@XZ
??0C1394CameraControl@@QEAA@PEAVC1394Camera@@W4CAMERA_FEATURE@@@Z
??0C1394CameraControlSize@@QEAA@PEAVC1394Camera@@@Z
??0C1394CameraControlStrobe@@QEAA@PEAVC1394Camera@@K@Z
??0C1394CameraControlTrigger@@QEAA@PEAVC1394Camera@@@Z
??1C1394Camera@@QEAA@XZ
??1C1394CameraControl@@QEAA@XZ
??1C1394CameraControlSize@@QEAA@XZ
??1C1394CameraControlStrobe@@QEAA@XZ
??1C1394CameraControlTrigger@@QEAA@XZ
??4C1394Camera@@QEAAAEAV0@AEBV0@@Z
??4C1394CameraControl@@QEAAAEAV0@AEBV0@@Z
??4C1394CameraControlSize@@QEAAAEAV0@AEBV0@@Z
??4C1394CameraControlStrobe@@QEAAAEAV0@AEBV0@@Z
??4C1394CameraControlTrigger@@QEAAAEAV0@AEBV0@@Z
?AcquireImage@C1394Camera@@QEAAHXZ
?AcquireImageEx@C1394Camera@@QEAAHHPEAH@Z
?CameraControlDialog@@YAPEAUHWND__@@PEAU1@PEAVC1394Camera@@H@Z
?CameraControlSizeDialog@@YAJPEAUHWND__@@PEAVC1394Camera@@@Z
?CameraErrorString@@YAPEBDH@Z
?CaptureImage@C1394Camera@@QEAAHXZ
?CheckError1@C1394CameraControlSize@@QEAA_NXZ
?CheckError2@C1394CameraControlSize@@QEAA_NXZ
?CheckLink@C1394Camera@@QEAAHXZ
?CheckVideoSettings@C1394Camera@@AEAA_NXZ
?ComputeBufferParameters@C1394Camera@@AEAAKKKKAEAK0@Z
?DoSoftwareTrigger@C1394CameraControlTrigger@@QEAAHXZ
?FreeResources@C1394Camera@@AEAAHXZ
?GetAdvancedFeatureOffset@C1394Camera@@QEAAKXZ
?GetBytesPerFrame@C1394CameraControlSize@@QEAAXPEAK0@Z
?GetBytesPerPacket@C1394CameraControlSize@@QEAAXPEAG0@Z
?GetBytesPerPacketRange@C1394CameraControlSize@@QEAAXPEAG0@Z
?GetCameraControl@C1394Camera@@QEAAPEAVC1394CameraControl@@W4CAMERA_FEATURE@@@Z
?GetCameraControlSize@C1394Camera@@QEAAPEAVC1394CameraControlSize@@XZ
?GetCameraControlTrigger@C1394Camera@@QEAAPEAVC1394CameraControlTrigger@@XZ
?GetCameraName@C1394Camera@@QEAAXPEADH@Z
?GetCameraUniqueID@C1394Camera@@QEAAXPEAT_LARGE_INTEGER@@@Z
?GetCameraVendor@C1394Camera@@QEAAXPEADH@Z
?GetColorCode@C1394CameraControlSize@@QEAAXPEAW4COLOR_CODE@@@Z
?GetColorFilter@C1394CameraControlSize@@QEAAXPEAG@Z
?GetDataDepth@C1394CameraControlSize@@QEAAXPEAG@Z
?GetDevicePath@C1394Camera@@QEAAPEBDXZ
?GetFeatureID@C1394CameraControl@@QEAA?AW4CAMERA_FEATURE@@XZ
?GetFeatureID@C1394CameraControlStrobe@@QEAA?AW4CAMERA_FEATURE@@XZ
?GetFrameEvent@C1394Camera@@QEAAPEAXXZ
?GetFrameInterval@C1394CameraControlSize@@QEAAXPEAM@Z
?GetMaxBufferSize@C1394Camera@@QEAAXPEAT_ULARGE_INTEGER@@@Z
?GetMaxSpeed@C1394Camera@@QEAAHXZ
?GetMode@C1394CameraControlTrigger@@QEAAHPEAG0@Z
?GetName@C1394CameraControl@@QEAAPEBDXZ
?GetName@C1394CameraControlStrobe@@QEAAPEBDXZ
?GetNode@C1394Camera@@QEAAHXZ
?GetNodeDescription@C1394Camera@@QEAAHHPEADH@Z
?GetNumberCameras@C1394Camera@@QEAAHXZ
?GetPIOControlOffset@C1394Camera@@QEAAKXZ
?GetPIOInputBits@C1394Camera@@QEAAHPEAK@Z
?GetPIOOutputBits@C1394Camera@@QEAAHPEAK@Z
?GetPacketsPerFrame@C1394CameraControlSize@@QEAAXPEAK@Z
?GetPixelsPerFrame@C1394CameraControlSize@@QEAAXPEAK@Z
?GetPos@C1394CameraControlSize@@QEAAXPEAG0@Z
?GetPosLimits@C1394CameraControlSize@@QEAAXPEAG0@Z
?GetPosUnits@C1394CameraControlSize@@QEAAXPEAG0@Z
?GetRange@C1394CameraControl@@QEAAXPEAG0@Z
?GetRangeAbsolute@C1394CameraControl@@QEAAXPEAM0@Z
?GetRawData@C1394Camera@@QEAAPEAEPEAK@Z
?GetSIOConfig@C1394Camera@@QEAAHPEAK@Z
?GetSIOControlOffset@C1394Camera@@QEAAKXZ
?GetSIOStatusByte@C1394Camera@@QEAAHPEAE@Z
?GetSize@C1394CameraControlSize@@QEAAXPEAG0@Z
?GetSizeLimits@C1394CameraControlSize@@QEAAXPEAG0@Z
?GetSizeUnits@C1394CameraControlSize@@QEAAXPEAG0@Z
?GetStrobeControl@C1394Camera@@QEAAPEAVC1394CameraControlStrobe@@K@Z
?GetStrobeControlOffset@C1394Camera@@QEAAKXZ
?GetTriggerSource@C1394CameraControlTrigger@@QEAAXPEAG@Z
?GetUnits@C1394CameraControl@@QEAAPEBDXZ
?GetUnits@C1394CameraControlStrobe@@QEAAPEBDXZ
?GetValue@C1394CameraControl@@QEAAXPEAG0@Z
?GetValueAbsolute@C1394CameraControl@@QEAAXPEAM@Z
?GetValueReadout@C1394CameraControlTrigger@@QEAAXPEAG@Z
?GetVersion@C1394Camera@@QEAAKXZ
?GetVideoDataDepth@C1394Camera@@QEAAXPEAG@Z
?GetVideoFormat@C1394Camera@@QEAAHXZ
?GetVideoFrameDimensions@C1394Camera@@QEAAXPEAK0@Z
?GetVideoFrameRate@C1394Camera@@QEAAHXZ
?GetVideoMode@C1394Camera@@QEAAHXZ
?Has1394b@C1394Camera@@QEAA_NXZ
?HasAbsControl@C1394CameraControl@@QEAA_NXZ
?HasAdvancedFeature@C1394Camera@@QEAA_NXZ
?HasAutoMode@C1394CameraControl@@QEAA_NXZ
?HasAutoMode@C1394CameraControlStrobe@@QEAA_NXZ
?HasAutoMode@C1394CameraControlTrigger@@QEAA_NXZ
?HasColorCode@C1394CameraControlSize@@QEAA_NW4COLOR_CODE@@@Z
?HasFeature@C1394Camera@@QEAA_NW4CAMERA_FEATURE@@@Z
?HasManualMode@C1394CameraControl@@QEAA_NXZ
?HasManualMode@C1394CameraControlStrobe@@QEAA_NXZ
?HasManualMode@C1394CameraControlTrigger@@QEAA_NXZ
?HasMode@C1394CameraControlTrigger@@QEAA_NG@Z
?HasMultiShot@C1394Camera@@QEAA_NXZ
?HasOnOff@C1394CameraControl@@QEAA_NXZ
?HasOnePush@C1394CameraControl@@QEAA_NXZ
?HasOneShot@C1394Camera@@QEAA_NXZ
?HasOptionalFeatures@C1394Camera@@QEAA_NXZ
?HasPIO@C1394Camera@@QEAA_NXZ
?HasPolarity@C1394CameraControlStrobe@@QEAA_NXZ
?HasPolarity@C1394CameraControlTrigger@@QEAA_NXZ
?HasPowerControl@C1394Camera@@QEAA_NXZ
?HasPresence@C1394CameraControl@@QEAA_NXZ
?HasReadout@C1394CameraControl@@QEAA_NXZ
?HasSIO@C1394Camera@@QEAA_NXZ
?HasSoftwareTrigger@C1394CameraControlTrigger@@QEAA_NXZ
?HasStrobe@C1394Camera@@QEAA_NXZ
?HasTriggerSource@C1394CameraControlTrigger@@QEAA_NG@Z
?HasValueReadout@C1394CameraControlTrigger@@QEAA_NXZ
?HasVideoFormat@C1394Camera@@QEAAHK@Z
?HasVideoFrameRate@C1394Camera@@QEAAHKKK@Z
?HasVideoMode@C1394Camera@@QEAAHKK@Z
?InitCamera@C1394Camera@@QEAAHH@Z
?InitResources@C1394Camera@@AEAAHXZ
?Inquire@C1394CameraControl@@QEAAHPEAK@Z
?Inquire@C1394CameraControlStrobe@@QEAAHPEAK@Z
?InquireVideoFormats@C1394Camera@@AEAAHXZ
?InquireVideoModes@C1394Camera@@AEAAHXZ
?InquireVideoRates@C1394Camera@@AEAAHXZ
?IsAcquiring@C1394Camera@@QEAA_NXZ
?IsInitialized@C1394Camera@@QEAA_NXZ
?MemGetCurrentChannel@C1394Camera@@QEAAHXZ
?MemGetNumChannels@C1394Camera@@QEAAHXZ
?MemLoadChannel@C1394Camera@@QEAAHH@Z
?MemSaveChannel@C1394Camera@@QEAAHH@Z
?MultiShot@C1394Camera@@QEAAHG@Z
?OneShot@C1394Camera@@QEAAHXZ
?RGB16toRGB@C1394Camera@@QEAAHPEAEK@Z
?ReadQuadlet@C1394Camera@@QEAAHKPEAK@Z
?RefreshCameraList@C1394Camera@@QEAAHXZ
?RefreshControlRegisters@C1394Camera@@QEAAXH@Z
?RegLoadSettings@C1394Camera@@QEAAHPEBD@Z
?RegSaveSettings@C1394Camera@@QEAAHPEBD@Z
?SIOConfigPort@C1394Camera@@QEAAHKKKK@Z
?SIOEnable@C1394Camera@@QEAAHHH@Z
?SIOReadBytes@C1394Camera@@QEAAHPEAEK@Z
?SIOWriteBytes@C1394Camera@@QEAAHPEAEK@Z
?SelectCamera@C1394Camera@@QEAAHH@Z
?Set1394b@C1394Camera@@QEAAHH@Z
?SetAbsControl@C1394CameraControl@@QEAAHH@Z
?SetAutoMode@C1394CameraControl@@QEAAHH@Z
?SetAutoMode@C1394CameraControlStrobe@@QEAAHH@Z
?SetAutoMode@C1394CameraControlTrigger@@QEAAHH@Z
?SetBytesPerPacket@C1394CameraControlSize@@QEAAHG@Z
?SetColorCode@C1394CameraControlSize@@QEAAHW4COLOR_CODE@@@Z
?SetMode@C1394CameraControlTrigger@@QEAAHGG@Z
?SetOffset@C1394CameraControlSize@@AEAAHK@Z
?SetOnOff@C1394CameraControl@@QEAAHH@Z
?SetOnePush@C1394CameraControl@@QEAAHH@Z
?SetPIOOutputBits@C1394Camera@@QEAAHK@Z
?SetPolarity@C1394CameraControlStrobe@@QEAAHH@Z
?SetPolarity@C1394CameraControlTrigger@@QEAAHH@Z
?SetPos@C1394CameraControlSize@@QEAAHGG@Z
?SetPowerControl@C1394Camera@@QEAAHH@Z
?SetSize@C1394CameraControlSize@@QEAAHGG@Z
?SetStatus@C1394CameraControl@@IEAAHXZ
?SetTriggerSource@C1394CameraControlTrigger@@QEAAHG@Z
?SetValue@C1394CameraControl@@QEAAHGG@Z
?SetValueAbsolute@C1394CameraControl@@QEAAHM@Z
?SetValues@C1394CameraControlSize@@AEAAHXZ
?SetVideoFormat@C1394Camera@@QEAAHK@Z
?SetVideoFrameRate@C1394Camera@@QEAAHK@Z
?SetVideoMode@C1394Camera@@QEAAHK@Z
?StartImageAcquisition@C1394Camera@@QEAAHXZ
?StartImageAcquisitionEx@C1394Camera@@QEAAHHHH@Z
?StartImageCapture@C1394Camera@@QEAAHXZ
?StartVideoStream@C1394Camera@@QEAAHXZ
?Status1394b@C1394Camera@@QEAA_NXZ
?Status@C1394CameraControl@@QEAAHPEAK@Z
?StatusAbsControl@C1394CameraControl@@QEAA_NXZ
?StatusAutoMode@C1394CameraControl@@QEAA_NXZ
?StatusAutoMode@C1394CameraControlStrobe@@QEAA_NXZ
?StatusAutoMode@C1394CameraControlTrigger@@QEAA_NXZ
?StatusFeatureError@C1394Camera@@QEAA_NW4CAMERA_FEATURE@@H@Z
?StatusOnOff@C1394CameraControl@@QEAA_NXZ
?StatusOnePush@C1394CameraControl@@QEAA_NXZ
?StatusPolarity@C1394CameraControlStrobe@@QEAA_NXZ
?StatusPolarity@C1394CameraControlTrigger@@QEAA_NXZ
?StatusPowerControl@C1394Camera@@QEAA_NXZ
?StatusPresence@C1394CameraControl@@QEAA_NXZ
?StatusVideoErrors@C1394Camera@@QEAA_NH@Z
?StopImageAcquisition@C1394Camera@@QEAAHXZ
?StopImageCapture@C1394Camera@@QEAAHXZ
?StopVideoStream@C1394Camera@@QEAAHXZ
?UpdateParameters@C1394Camera@@QEAAXH@Z
?UpdateStatic@C1394CameraControlSize@@AEAAHXZ
?UpdateTier1@C1394CameraControlSize@@AEAAHH@Z
?UpdateTier2@C1394CameraControlSize@@AEAAHH@Z
?WriteQuadlet@C1394Camera@@QEAAHKK@Z
?Y16toRGB@C1394Camera@@QEAAHPEAEK@Z
?YUV411toRGB@C1394Camera@@QEAAHPEAEK@Z
?YUV422toRGB@C1394Camera@@QEAAHPEAEK@Z
?YUV444toRGB@C1394Camera@@QEAAHPEAEK@Z
?YtoRGB@C1394Camera@@QEAAHPEAEK@Z
?getDIB@C1394Camera@@QEAAHPEAEK@Z
?getRGB@C1394Camera@@QEAAHPEAEK@Z
CameraDebugDialog
GetCameraSpecification
GetCmdrState
GetCmdrTraceLevel
GetCmdrVersion
GetMaxIsochSpeed
GetModelName
GetUniqueID
GetVendorName
OpenCameraSettingsKey
OpenDevice
ReadRegister
ReadRegisterUL
SetCmdrTraceLevel
SetDllTraceLevel
SpeedFlagToIndex
WriteRegister
WriteRegisterUL
dc1394AttachAcquisitionBuffer
dc1394BuildAcquisitonBuffer
dc1394FlattenAcquisitionBuffer
dc1394FreeAcquisitionBuffer
dc1394GetBitsPerPixel
dc1394GetBufferSize
dc1394GetColorCodeDescription
dc1394GetFeatureId
dc1394GetFeatureName
dc1394GetFeatureOffset
dc1394GetFeatureUnits
dc1394GetModeDescriptor
dc1394GetModeString
dc1394GetQuadletsPerPacket
dc1394TriggerModeHasParameter
t1394CmdrGetDeviceList
t1394CmdrGetDevicePath
t1394CmdrGetGUID
t1394IsochAttachBuffer
t1394IsochListen
t1394IsochQueryCurrentCycleTime
t1394IsochQueryResources
t1394IsochSetupStream
t1394IsochStop
t1394IsochTearDownStream
t1394_GetHostDmaCapabilities
